; Function Attrs: mustprogress uwtable
define hidden void @_Z9drawText2N2cv3MatENSt7__cxx1112basic_stringIcSt11char_traitsIcESaIcEEENS_7Scalar_IdEE(ptr noundef %0, ptr noundef nonnull %1, ptr noundef readonly captures(none) %2) local_unnamed_addr #6 personality ptr @__gxx_personality_v0 {
_ZN2cv7Scalar_IdEC2ERKS1_.exit:
  %3 = alloca %"class.cv::_InputOutputArray", align 8
  %4 = alloca %"class.cv::Scalar_", align 8
  call void @llvm.lifetime.start.p0(i64 24, ptr nonnull %3) #25
  %5 = getelementptr inbounds nuw i8, ptr %3, i64 8
  %6 = getelementptr inbounds nuw i8, ptr %3, i64 16
  store i64 0, ptr %6, align 8
  store i32 50397184, ptr %3, align 8, !tbaa !30
  store ptr %0, ptr %5, align 8, !tbaa !34
  call void @llvm.memcpy.p0.p0.i64(ptr noundef nonnull align 8 dereferenceable(32) %4, ptr noundef nonnull align 8 dereferenceable(32) %2, i64 32, i1 false), !tbaa !35
  call void @_ZN2cv7putTextERKNS_17_InputOutputArrayERKNSt7__cxx1112basic_stringIcSt11char_traitsIcESaIcEEENS_6Point_IiEEidNS_7Scalar_IdEEiib(ptr noundef nonnull align 8 dereferenceable(24) %3, ptr noundef nonnull align 8 dereferenceable(32) %1, i64 322122547225, i32 noundef 16, double noundef 7.500000e-01, ptr noundef nonnull %4, i32 noundef 2, i32 noundef 8, i1 noundef zeroext false)
  call void @llvm.lifetime.end.p0(i64 24, ptr nonnull %3) #25
  ret void
}